target datalayout = "e-m:e-p270:32:32-p271:32:32-p272:64:64-i64:64-i128:128-f80:128-n8:16:32:64-S128"
target triple = "x86_64-pc-linux-gnu"

%class.mpff_manager = type <{ i32, i32, %class.svector, i32, i8, [3 x i8], %class.id_gen, [4 x %class.svector], %class.svector, %class.mpff, [8 x i8] }>
%class.id_gen = type { i32, %class.svector }
%class.svector = type { %class.vector }
%class.vector = type { ptr }
%class.mpff = type { i32, i32 }

; Function Attrs: mustprogress nounwind uwtable
define linkonce_odr hidden noundef ptr @_ZNK6vectorIjLb0EjE4dataEv(ptr noundef nonnull align 8 dereferenceable(8) %0) #5 comdat align 2 {
  %2 = alloca ptr, align 8
  store ptr %0, ptr %2, align 8, !tbaa !32
  %3 = load ptr, ptr %2, align 8
  %4 = getelementptr inbounds nuw %class.vector, ptr %3, i32 0, i32 0
  %5 = load ptr, ptr %4, align 8, !tbaa !35
  ret ptr %5
}

; Function Attrs: mustprogress uwtable
define linkonce_odr hidden noundef ptr @_ZNK12mpff_manager3sigERK4mpff(ptr noundef nonnull align 8 dereferenceable(89) %0, ptr noundef nonnull align 4 dereferenceable(8) %1) #4 comdat align 2 {
  %3 = alloca ptr, align 8
  %4 = alloca ptr, align 8
  store ptr %0, ptr %3, align 8, !tbaa !3
  store ptr %1, ptr %4, align 8, !tbaa !29
  %5 = load ptr, ptr %3, align 8
  %6 = getelementptr inbounds nuw %class.mpff_manager, ptr %5, i32 0, i32 2
  %7 = call noundef ptr @_ZNK6vectorIjLb0EjE4dataEv(ptr noundef nonnull align 8 dereferenceable(8) %6)
  %8 = load ptr, ptr %4, align 8, !tbaa !29
  %9 = load i32, ptr %8, align 4
  %10 = lshr i32 %9, 1
  %11 = getelementptr inbounds nuw %class.mpff_manager, ptr %5, i32 0, i32 0
  %12 = load i32, ptr %11, align 8, !tbaa !10
  %13 = mul i32 %10, %12
  %14 = zext i32 %13 to i64
  %15 = getelementptr inbounds nuw i32, ptr %7, i64 %14
  ret ptr %15
}

; Function Attrs: mustprogress nounwind uwtable
define linkonce_odr hidden noundef zeroext i1 @_ZN12mpff_manager7is_zeroERK4mpff(ptr noundef nonnull align 4 dereferenceable(8) %0) #5 comdat align 2 {
  %2 = alloca ptr, align 8
  store ptr %0, ptr %2, align 8, !tbaa !29
  %3 = load ptr, ptr %2, align 8, !tbaa !29
  %4 = load i32, ptr %3, align 4
  %5 = lshr i32 %4, 1
  %6 = icmp eq i32 %5, 0
  ret i1 %6
}

; Function Attrs: mustprogress uwtable
define hidden noundef zeroext i1 @_ZNK12mpff_manager9is_uint64ERK4mpff(ptr noundef nonnull align 8 dereferenceable(89) %0, ptr noundef nonnull align 4 dereferenceable(8) %1) #4 align 2 {
  %3 = alloca i1, align 1
  %4 = alloca ptr, align 8
  %5 = alloca ptr, align 8
  store ptr %0, ptr %4, align 8, !tbaa !3
  store ptr %1, ptr %5, align 8, !tbaa !29
  %6 = load ptr, ptr %4, align 8
  %7 = load ptr, ptr %5, align 8, !tbaa !29
  %8 = call noundef zeroext i1 @_ZN12mpff_manager7is_zeroERK4mpff(ptr noundef nonnull align 4 dereferenceable(8) %7)
  br i1 %8, label %9, label %10

9:                                                ; preds = %2
  store i1 true, ptr %3, align 1
  br label %48

10:                                               ; preds = %2
  %11 = load ptr, ptr %5, align 8, !tbaa !29
  %12 = load i32, ptr %11, align 4
  %13 = and i32 %12, 1
  %14 = icmp eq i32 %13, 0
  br i1 %14, label %15, label %46

15:                                               ; preds = %10
  %16 = load ptr, ptr %5, align 8, !tbaa !29
  %17 = getelementptr inbounds nuw %class.mpff, ptr %16, i32 0, i32 1
  %18 = load i32, ptr %17, align 4, !tbaa !31
  %19 = getelementptr inbounds nuw %class.mpff_manager, ptr %6, i32 0, i32 0
  %20 = load i32, ptr %19, align 8, !tbaa !10
  %21 = sub i32 %20, 2
  %22 = zext i32 %21 to i64
  %23 = mul i64 32, %22
  %24 = trunc i64 %23 to i32
  %25 = sub nsw i32 0, %24
  %26 = icmp sle i32 %18, %25
  br i1 %26, label %27, label %46

27:                                               ; preds = %15
  %28 = load ptr, ptr %5, align 8, !tbaa !29
  %29 = getelementptr inbounds nuw %class.mpff, ptr %28, i32 0, i32 1
  %30 = load i32, ptr %29, align 4, !tbaa !31
  %31 = getelementptr inbounds nuw %class.mpff_manager, ptr %6, i32 0, i32 1
  %32 = load i32, ptr %31, align 4, !tbaa !19
  %33 = sub nsw i32 0, %32
  %34 = icmp sgt i32 %30, %33
  br i1 %34, label %35, label %46

35:                                               ; preds = %27
  %36 = getelementptr inbounds nuw %class.mpff_manager, ptr %6, i32 0, i32 0
  %37 = load i32, ptr %36, align 8, !tbaa !10
  %38 = load ptr, ptr %5, align 8, !tbaa !29
  %39 = call noundef ptr @_ZNK12mpff_manager3sigERK4mpff(ptr noundef nonnull align 8 dereferenceable(89) %6, ptr noundef nonnull align 4 dereferenceable(8) %38)
  %40 = load ptr, ptr %5, align 8, !tbaa !29
  %41 = getelementptr inbounds nuw %class.mpff, ptr %40, i32 0, i32 1
  %42 = load i32, ptr %41, align 4, !tbaa !31
  %43 = sub nsw i32 0, %42
  %44 = call noundef zeroext i1 @_Z23has_one_at_first_k_bitsjPKjj(i32 noundef %37, ptr noundef %39, i32 noundef %43)
  %45 = xor i1 %44, true
  br label %46

46:                                               ; preds = %35, %27, %15, %10
  %47 = phi i1 [ false, %27 ], [ false, %15 ], [ false, %10 ], [ %45, %35 ]
  store i1 %47, ptr %3, align 1
  br label %48

48:                                               ; preds = %46, %9
  %49 = load i1, ptr %3, align 1
  ret i1 %49
}