; Function Attrs: mustprogress uwtable
define hidden noundef zeroext i1 @_ZNK12mpff_manager9is_uint64ERK4mpff(ptr noundef nonnull readonly align 8 captures(none) dereferenceable(89) %0, ptr noundef nonnull readonly align 4 captures(none) dereferenceable(8) %1) local_unnamed_addr #3 align 2 {
  %3 = load i32, ptr %1, align 4
  %4 = icmp ult i32 %3, 2
  br i1 %4, label %29, label %5

5:                                                ; preds = %2
  %6 = and i32 %3, 1
  %7 = icmp eq i32 %6, 0
  br i1 %7, label %8, label %29

8:                                                ; preds = %5
  %9 = getelementptr inbounds nuw i8, ptr %1, i64 4
  %10 = load i32, ptr %9, align 4, !tbaa !35
  %11 = load i32, ptr %0, align 8, !tbaa !13
  %12 = shl i32 %11, 5
  %13 = sub i32 64, %12
  %.not = icmp sgt i32 %10, %13
  br i1 %.not, label %29, label %14

14:                                               ; preds = %8
  %15 = getelementptr inbounds nuw i8, ptr %0, i64 4
  %16 = load i32, ptr %15, align 4, !tbaa !18
  %17 = sub nsw i32 0, %16
  %18 = icmp sgt i32 %10, %17
  br i1 %18, label %19, label %29

19:                                               ; preds = %14
  %20 = getelementptr inbounds nuw i8, ptr %0, i64 8
  %21 = load ptr, ptr %20, align 8, !tbaa !3
  %22 = lshr exact i32 %3, 1
  %23 = mul i32 %11, %22
  %24 = zext i32 %23 to i64
  %25 = getelementptr inbounds nuw i32, ptr %21, i64 %24
  %26 = sub nsw i32 0, %10
  %27 = tail call noundef zeroext i1 @_Z23has_one_at_first_k_bitsjPKjj(i32 noundef %11, ptr noundef %25, i32 noundef %26)
  %28 = xor i1 %27, true
  br label %29

29:                                               ; preds = %5, %8, %14, %19, %2
  %.0 = phi i1 [ true, %2 ], [ false, %14 ], [ false, %8 ], [ false, %5 ], [ %28, %19 ]
  ret i1 %.0
}